; Function Attrs: nounwind uwtable
define ptr @l_Array_forIn_x27Unsafe_loop___at_Lean_Elab_ComputedFields_setComputedFields___spec__8___boxed(ptr noundef %0, ptr noundef %1, ptr noundef %2, ptr noundef %3, ptr noundef %4, ptr noundef %5, ptr noundef %6, ptr noundef %7, ptr noundef %8, ptr noundef %9, ptr noundef %10, ptr noundef %11) local_unnamed_addr #0 {
  %13 = getelementptr i8, ptr %2, i64 8
  %.val53 = load i64, ptr %13, align 8, !tbaa !11
  %14 = ptrtoint ptr %2 to i64
  %15 = and i64 %14, 1
  %.not = icmp eq i64 %15, 0
  br i1 %.not, label %16, label %lean_dec.exit33

16:                                               ; preds = %12
  %17 = load i32, ptr %2, align 4, !tbaa !8
  %18 = icmp sgt i32 %17, 1
  br i1 %18, label %19, label %21, !prof !13

19:                                               ; preds = %16
  %20 = add nsw i32 %17, -1
  store i32 %20, ptr %2, align 4, !tbaa !8
  br label %lean_dec.exit33

21:                                               ; preds = %16
  %.not.i = icmp eq i32 %17, 0
  br i1 %.not.i, label %lean_dec.exit33, label %22

22:                                               ; preds = %21
  tail call void @lean_dec_ref_cold(ptr noundef nonnull %2) #4
  br label %lean_dec.exit33

lean_dec.exit33:                                  ; preds = %22, %21, %19, %12
  %23 = getelementptr i8, ptr %4, i64 8
  %.val52 = load i64, ptr %23, align 8, !tbaa !11
  %24 = ptrtoint ptr %4 to i64
  %25 = and i64 %24, 1
  %.not54 = icmp eq i64 %25, 0
  br i1 %.not54, label %26, label %lean_dec.exit32

26:                                               ; preds = %lean_dec.exit33
  %27 = load i32, ptr %4, align 4, !tbaa !8
  %28 = icmp sgt i32 %27, 1
  br i1 %28, label %29, label %31, !prof !13

29:                                               ; preds = %26
  %30 = add nsw i32 %27, -1
  store i32 %30, ptr %4, align 4, !tbaa !8
  br label %lean_dec.exit32

31:                                               ; preds = %26
  %.not.i34 = icmp eq i32 %27, 0
  br i1 %.not.i34, label %lean_dec.exit32, label %32

32:                                               ; preds = %31
  tail call void @lean_dec_ref_cold(ptr noundef nonnull %4) #4
  br label %lean_dec.exit32

lean_dec.exit32:                                  ; preds = %32, %31, %29, %lean_dec.exit33
  %33 = getelementptr i8, ptr %5, i64 8
  %.val = load i64, ptr %33, align 8, !tbaa !11
  %34 = ptrtoint ptr %5 to i64
  %35 = and i64 %34, 1
  %.not55 = icmp eq i64 %35, 0
  br i1 %.not55, label %36, label %lean_dec.exit31

36:                                               ; preds = %lean_dec.exit32
  %37 = load i32, ptr %5, align 4, !tbaa !8
  %38 = icmp sgt i32 %37, 1
  br i1 %38, label %39, label %41, !prof !13

39:                                               ; preds = %36
  %40 = add nsw i32 %37, -1
  store i32 %40, ptr %5, align 4, !tbaa !8
  br label %lean_dec.exit31

41:                                               ; preds = %36
  %.not.i36 = icmp eq i32 %37, 0
  br i1 %.not.i36, label %lean_dec.exit31, label %42

42:                                               ; preds = %41
  tail call void @lean_dec_ref_cold(ptr noundef nonnull %5) #4
  br label %lean_dec.exit31

lean_dec.exit31:                                  ; preds = %42, %41, %39, %lean_dec.exit32
  %43 = tail call ptr @l_Array_forIn_x27Unsafe_loop___at_Lean_Elab_ComputedFields_setComputedFields___spec__8(ptr poison, ptr poison, i64 noundef %.val53, ptr noundef %3, i64 noundef %.val52, i64 noundef %.val, ptr noundef %6, ptr noundef %7, ptr noundef %8, ptr noundef %9, ptr noundef %10, ptr noundef %11)
  %44 = ptrtoint ptr %10 to i64
  %45 = and i64 %44, 1
  %.not56 = icmp eq i64 %45, 0
  br i1 %.not56, label %46, label %lean_dec.exit30

46:                                               ; preds = %lean_dec.exit31
  %47 = load i32, ptr %10, align 4, !tbaa !8
  %48 = icmp sgt i32 %47, 1
  br i1 %48, label %49, label %51, !prof !13

49:                                               ; preds = %46
  %50 = add nsw i32 %47, -1
  store i32 %50, ptr %10, align 4, !tbaa !8
  br label %lean_dec.exit30

51:                                               ; preds = %46
  %.not.i38 = icmp eq i32 %47, 0
  br i1 %.not.i38, label %lean_dec.exit30, label %52

52:                                               ; preds = %51
  tail call void @lean_dec_ref_cold(ptr noundef nonnull %10) #4
  br label %lean_dec.exit30

lean_dec.exit30:                                  ; preds = %52, %51, %49, %lean_dec.exit31
  %53 = ptrtoint ptr %9 to i64
  %54 = and i64 %53, 1
  %.not57 = icmp eq i64 %54, 0
  br i1 %.not57, label %55, label %lean_dec.exit29

55:                                               ; preds = %lean_dec.exit30
  %56 = load i32, ptr %9, align 4, !tbaa !8
  %57 = icmp sgt i32 %56, 1
  br i1 %57, label %58, label %60, !prof !13

58:                                               ; preds = %55
  %59 = add nsw i32 %56, -1
  store i32 %59, ptr %9, align 4, !tbaa !8
  br label %lean_dec.exit29

60:                                               ; preds = %55
  %.not.i40 = icmp eq i32 %56, 0
  br i1 %.not.i40, label %lean_dec.exit29, label %61

61:                                               ; preds = %60
  tail call void @lean_dec_ref_cold(ptr noundef nonnull %9) #4
  br label %lean_dec.exit29

lean_dec.exit29:                                  ; preds = %61, %60, %58, %lean_dec.exit30
  %62 = ptrtoint ptr %8 to i64
  %63 = and i64 %62, 1
  %.not58 = icmp eq i64 %63, 0
  br i1 %.not58, label %64, label %lean_dec.exit28

64:                                               ; preds = %lean_dec.exit29
  %65 = load i32, ptr %8, align 4, !tbaa !8
  %66 = icmp sgt i32 %65, 1
  br i1 %66, label %67, label %69, !prof !13

67:                                               ; preds = %64
  %68 = add nsw i32 %65, -1
  store i32 %68, ptr %8, align 4, !tbaa !8
  br label %lean_dec.exit28

69:                                               ; preds = %64
  %.not.i42 = icmp eq i32 %65, 0
  br i1 %.not.i42, label %lean_dec.exit28, label %70

70:                                               ; preds = %69
  tail call void @lean_dec_ref_cold(ptr noundef nonnull %8) #4
  br label %lean_dec.exit28

lean_dec.exit28:                                  ; preds = %70, %69, %67, %lean_dec.exit29
  %71 = ptrtoint ptr %7 to i64
  %72 = and i64 %71, 1
  %.not59 = icmp eq i64 %72, 0
  br i1 %.not59, label %73, label %lean_dec.exit27

73:                                               ; preds = %lean_dec.exit28
  %74 = load i32, ptr %7, align 4, !tbaa !8
  %75 = icmp sgt i32 %74, 1
  br i1 %75, label %76, label %78, !prof !13

76:                                               ; preds = %73
  %77 = add nsw i32 %74, -1
  store i32 %77, ptr %7, align 4, !tbaa !8
  br label %lean_dec.exit27

78:                                               ; preds = %73
  %.not.i44 = icmp eq i32 %74, 0
  br i1 %.not.i44, label %lean_dec.exit27, label %79

79:                                               ; preds = %78
  tail call void @lean_dec_ref_cold(ptr noundef nonnull %7) #4
  br label %lean_dec.exit27

lean_dec.exit27:                                  ; preds = %79, %78, %76, %lean_dec.exit28
  %80 = ptrtoint ptr %3 to i64
  %81 = and i64 %80, 1
  %.not60 = icmp eq i64 %81, 0
  br i1 %.not60, label %82, label %lean_dec.exit26

82:                                               ; preds = %lean_dec.exit27
  %83 = load i32, ptr %3, align 4, !tbaa !8
  %84 = icmp sgt i32 %83, 1
  br i1 %84, label %85, label %87, !prof !13

85:                                               ; preds = %82
  %86 = add nsw i32 %83, -1
  store i32 %86, ptr %3, align 4, !tbaa !8
  br label %lean_dec.exit26

87:                                               ; preds = %82
  %.not.i46 = icmp eq i32 %83, 0
  br i1 %.not.i46, label %lean_dec.exit26, label %88

88:                                               ; preds = %87
  tail call void @lean_dec_ref_cold(ptr noundef nonnull %3) #4
  br label %lean_dec.exit26

lean_dec.exit26:                                  ; preds = %88, %87, %85, %lean_dec.exit27
  %89 = ptrtoint ptr %1 to i64
  %90 = and i64 %89, 1
  %.not61 = icmp eq i64 %90, 0
  br i1 %.not61, label %91, label %lean_dec.exit25

91:                                               ; preds = %lean_dec.exit26
  %92 = load i32, ptr %1, align 4, !tbaa !8
  %93 = icmp sgt i32 %92, 1
  br i1 %93, label %94, label %96, !prof !13

94:                                               ; preds = %91
  %95 = add nsw i32 %92, -1
  store i32 %95, ptr %1, align 4, !tbaa !8
  br label %lean_dec.exit25

96:                                               ; preds = %91
  %.not.i48 = icmp eq i32 %92, 0
  br i1 %.not.i48, label %lean_dec.exit25, label %97

97:                                               ; preds = %96
  tail call void @lean_dec_ref_cold(ptr noundef nonnull %1) #4
  br label %lean_dec.exit25

lean_dec.exit25:                                  ; preds = %97, %96, %94, %lean_dec.exit26
  %98 = ptrtoint ptr %0 to i64
  %99 = and i64 %98, 1
  %.not62 = icmp eq i64 %99, 0
  br i1 %.not62, label %100, label %lean_dec.exit

100:                                              ; preds = %lean_dec.exit25
  %101 = load i32, ptr %0, align 4, !tbaa !8
  %102 = icmp sgt i32 %101, 1
  br i1 %102, label %103, label %105, !prof !13

103:                                              ; preds = %100
  %104 = add nsw i32 %101, -1
  store i32 %104, ptr %0, align 4, !tbaa !8
  br label %lean_dec.exit

105:                                              ; preds = %100
  %.not.i50 = icmp eq i32 %101, 0
  br i1 %.not.i50, label %lean_dec.exit, label %106

106:                                              ; preds = %105
  tail call void @lean_dec_ref_cold(ptr noundef nonnull %0) #4
  br label %lean_dec.exit

lean_dec.exit:                                    ; preds = %106, %105, %103, %lean_dec.exit25
  ret ptr %43
}